; Function Attrs: nofree nounwind uwtable
define void @Rwt_ManPrintStatsFile(ptr noundef readonly captures(none) %0) local_unnamed_addr #8 {
  %2 = tail call noalias ptr @fopen(ptr noundef nonnull @.str.18, ptr noundef nonnull @.str.19)
  %3 = getelementptr inbounds nuw i8, ptr %0, i64 1076
  %4 = load i32, ptr %3, align 4, !tbaa !67
  %5 = tail call i32 (ptr, ptr, ...) @fprintf(ptr noundef %2, ptr noundef nonnull @.str.20, i32 noundef %4) #16
  %6 = getelementptr inbounds nuw i8, ptr %0, i64 1084
  %7 = load i32, ptr %6, align 4, !tbaa !69
  %8 = tail call i32 (ptr, ptr, ...) @fprintf(ptr noundef %2, ptr noundef nonnull @.str.20, i32 noundef %7) #16
  %9 = getelementptr inbounds nuw i8, ptr %0, i64 180
  %10 = load i32, ptr %9, align 4, !tbaa !71
  %11 = tail call i32 (ptr, ptr, ...) @fprintf(ptr noundef %2, ptr noundef nonnull @.str.20, i32 noundef %10) #16
  %12 = getelementptr inbounds nuw i8, ptr %0, i64 184
  %13 = load i32, ptr %12, align 8, !tbaa !72
  %14 = tail call i32 (ptr, ptr, ...) @fprintf(ptr noundef %2, ptr noundef nonnull @.str.21, i32 noundef %13) #16
  %fputc = tail call i32 @fputc(i32 10, ptr %2)
  %15 = tail call i32 @fclose(ptr noundef %2)
  ret void
}